target datalayout = "e-m:e-p270:32:32-p271:32:32-p272:64:64-i64:64-i128:128-f80:128-n8:16:32:64-S128"
target triple = "x86_64-pc-linux-gnu"

%struct.png_XYZ = type { i32, i32, i32, i32, i32, i32, i32, i32, i32 }
%struct.png_xy = type { i32, i32, i32, i32, i32, i32, i32, i32 }
%struct.png_struct_def = type { [1 x %struct.__jmp_buf_tag], ptr, ptr, i64, ptr, ptr, ptr, ptr, ptr, ptr, ptr, ptr, ptr, i8, i8, i32, i32, i32, i32, %struct.z_stream_s, ptr, i32, i32, i32, i32, i32, i32, i32, i32, i32, i32, i32, i32, i32, i32, i32, i32, i32, i32, i32, i32, i64, i32, i32, i32, ptr, ptr, ptr, ptr, i64, i32, i32, ptr, i16, i32, i16, i8, i8, i8, i8, i8, i8, i8, i8, i8, i8, i8, i8, i8, i8, i8, i16, i8, i32, %struct.png_color_16_struct, %struct.png_color_16_struct, ptr, i32, i32, i32, i32, ptr, ptr, ptr, ptr, ptr, ptr, %struct.png_color_8_struct, %struct.png_color_8_struct, ptr, %struct.png_color_16_struct, ptr, ptr, ptr, ptr, ptr, ptr, ptr, ptr, ptr, i32, i32, i64, i64, i64, i64, i32, i32, ptr, ptr, i32, [29 x i8], i32, ptr, ptr, i32, i32, ptr, i8, i8, i16, i16, ptr, i32, i8, ptr, ptr, ptr, ptr, ptr, ptr, ptr, i8, i32, i32, i32, i64, %struct.png_unknown_chunk_t, i64, ptr, i64, i32, i32, ptr, [4 x ptr], %struct.png_colorspace }
%struct.__jmp_buf_tag = type { [8 x i64], i32, %struct.__sigset_t }
%struct.__sigset_t = type { [16 x i64] }
%struct.z_stream_s = type { ptr, i32, i64, ptr, i32, i64, ptr, ptr, ptr, ptr, ptr, i32, i64, i64 }
%struct.png_color_8_struct = type { i8, i8, i8, i8, i8 }
%struct.png_color_16_struct = type { i8, i16, i16, i16, i16 }
%struct.png_unknown_chunk_t = type { [5 x i8], ptr, i64, i8 }
%struct.png_colorspace = type { i32, %struct.png_xy, %struct.png_XYZ, i16, i16 }

; Function Attrs: nounwind uwtable
define void @png_destroy_gamma_table(ptr noalias noundef %0) #0 {
  %2 = alloca ptr, align 8
  %3 = alloca i32, align 4
  %4 = alloca i32, align 4
  %5 = alloca i32, align 4
  %6 = alloca i32, align 4
  %7 = alloca i32, align 4
  %8 = alloca i32, align 4
  store ptr %0, ptr %2, align 8
  %9 = load ptr, ptr %2, align 8
  %10 = load ptr, ptr %2, align 8
  %11 = getelementptr inbounds %struct.png_struct_def, ptr %10, i32 0, i32 81
  %12 = load ptr, ptr %11, align 8
  call void @png_free(ptr noundef %9, ptr noundef %12)
  %13 = load ptr, ptr %2, align 8
  %14 = getelementptr inbounds %struct.png_struct_def, ptr %13, i32 0, i32 81
  store ptr null, ptr %14, align 8
  %15 = load ptr, ptr %2, align 8
  %16 = getelementptr inbounds %struct.png_struct_def, ptr %15, i32 0, i32 82
  %17 = load ptr, ptr %16, align 8
  %18 = icmp ne ptr %17, null
  br i1 %18, label %19, label %48

19:                                               ; preds = %1
  %20 = load ptr, ptr %2, align 8
  %21 = getelementptr inbounds %struct.png_struct_def, ptr %20, i32 0, i32 79
  %22 = load i32, ptr %21, align 8
  %23 = sub nsw i32 8, %22
  %24 = shl i32 1, %23
  store i32 %24, ptr %4, align 4
  store i32 0, ptr %3, align 4
  br label %25

25:                                               ; preds = %38, %19
  %26 = load i32, ptr %3, align 4
  %27 = load i32, ptr %4, align 4
  %28 = icmp slt i32 %26, %27
  br i1 %28, label %29, label %41

29:                                               ; preds = %25
  %30 = load ptr, ptr %2, align 8
  %31 = load ptr, ptr %2, align 8
  %32 = getelementptr inbounds %struct.png_struct_def, ptr %31, i32 0, i32 82
  %33 = load ptr, ptr %32, align 8
  %34 = load i32, ptr %3, align 4
  %35 = sext i32 %34 to i64
  %36 = getelementptr inbounds ptr, ptr %33, i64 %35
  %37 = load ptr, ptr %36, align 8
  call void @png_free(ptr noundef %30, ptr noundef %37)
  br label %38

38:                                               ; preds = %29
  %39 = load i32, ptr %3, align 4
  %40 = add nsw i32 %39, 1
  store i32 %40, ptr %3, align 4
  br label %25, !llvm.loop !30

41:                                               ; preds = %25
  %42 = load ptr, ptr %2, align 8
  %43 = load ptr, ptr %2, align 8
  %44 = getelementptr inbounds %struct.png_struct_def, ptr %43, i32 0, i32 82
  %45 = load ptr, ptr %44, align 8
  call void @png_free(ptr noundef %42, ptr noundef %45)
  %46 = load ptr, ptr %2, align 8
  %47 = getelementptr inbounds %struct.png_struct_def, ptr %46, i32 0, i32 82
  store ptr null, ptr %47, align 8
  br label %48

48:                                               ; preds = %41, %1
  %49 = load ptr, ptr %2, align 8
  %50 = load ptr, ptr %2, align 8
  %51 = getelementptr inbounds %struct.png_struct_def, ptr %50, i32 0, i32 83
  %52 = load ptr, ptr %51, align 8
  call void @png_free(ptr noundef %49, ptr noundef %52)
  %53 = load ptr, ptr %2, align 8
  %54 = getelementptr inbounds %struct.png_struct_def, ptr %53, i32 0, i32 83
  store ptr null, ptr %54, align 8
  %55 = load ptr, ptr %2, align 8
  %56 = load ptr, ptr %2, align 8
  %57 = getelementptr inbounds %struct.png_struct_def, ptr %56, i32 0, i32 84
  %58 = load ptr, ptr %57, align 8
  call void @png_free(ptr noundef %55, ptr noundef %58)
  %59 = load ptr, ptr %2, align 8
  %60 = getelementptr inbounds %struct.png_struct_def, ptr %59, i32 0, i32 84
  store ptr null, ptr %60, align 8
  %61 = load ptr, ptr %2, align 8
  %62 = getelementptr inbounds %struct.png_struct_def, ptr %61, i32 0, i32 85
  %63 = load ptr, ptr %62, align 8
  %64 = icmp ne ptr %63, null
  br i1 %64, label %65, label %94

65:                                               ; preds = %48
  %66 = load ptr, ptr %2, align 8
  %67 = getelementptr inbounds %struct.png_struct_def, ptr %66, i32 0, i32 79
  %68 = load i32, ptr %67, align 8
  %69 = sub nsw i32 8, %68
  %70 = shl i32 1, %69
  store i32 %70, ptr %6, align 4
  store i32 0, ptr %5, align 4
  br label %71

71:                                               ; preds = %84, %65
  %72 = load i32, ptr %5, align 4
  %73 = load i32, ptr %6, align 4
  %74 = icmp slt i32 %72, %73
  br i1 %74, label %75, label %87

75:                                               ; preds = %71
  %76 = load ptr, ptr %2, align 8
  %77 = load ptr, ptr %2, align 8
  %78 = getelementptr inbounds %struct.png_struct_def, ptr %77, i32 0, i32 85
  %79 = load ptr, ptr %78, align 8
  %80 = load i32, ptr %5, align 4
  %81 = sext i32 %80 to i64
  %82 = getelementptr inbounds ptr, ptr %79, i64 %81
  %83 = load ptr, ptr %82, align 8
  call void @png_free(ptr noundef %76, ptr noundef %83)
  br label %84

84:                                               ; preds = %75
  %85 = load i32, ptr %5, align 4
  %86 = add nsw i32 %85, 1
  store i32 %86, ptr %5, align 4
  br label %71, !llvm.loop !31

87:                                               ; preds = %71
  %88 = load ptr, ptr %2, align 8
  %89 = load ptr, ptr %2, align 8
  %90 = getelementptr inbounds %struct.png_struct_def, ptr %89, i32 0, i32 85
  %91 = load ptr, ptr %90, align 8
  call void @png_free(ptr noundef %88, ptr noundef %91)
  %92 = load ptr, ptr %2, align 8
  %93 = getelementptr inbounds %struct.png_struct_def, ptr %92, i32 0, i32 85
  store ptr null, ptr %93, align 8
  br label %94

94:                                               ; preds = %87, %48
  %95 = load ptr, ptr %2, align 8
  %96 = getelementptr inbounds %struct.png_struct_def, ptr %95, i32 0, i32 86
  %97 = load ptr, ptr %96, align 8
  %98 = icmp ne ptr %97, null
  br i1 %98, label %99, label %128

99:                                               ; preds = %94
  %100 = load ptr, ptr %2, align 8
  %101 = getelementptr inbounds %struct.png_struct_def, ptr %100, i32 0, i32 79
  %102 = load i32, ptr %101, align 8
  %103 = sub nsw i32 8, %102
  %104 = shl i32 1, %103
  store i32 %104, ptr %8, align 4
  store i32 0, ptr %7, align 4
  br label %105

105:                                              ; preds = %118, %99
  %106 = load i32, ptr %7, align 4
  %107 = load i32, ptr %8, align 4
  %108 = icmp slt i32 %106, %107
  br i1 %108, label %109, label %121

109:                                              ; preds = %105
  %110 = load ptr, ptr %2, align 8
  %111 = load ptr, ptr %2, align 8
  %112 = getelementptr inbounds %struct.png_struct_def, ptr %111, i32 0, i32 86
  %113 = load ptr, ptr %112, align 8
  %114 = load i32, ptr %7, align 4
  %115 = sext i32 %114 to i64
  %116 = getelementptr inbounds ptr, ptr %113, i64 %115
  %117 = load ptr, ptr %116, align 8
  call void @png_free(ptr noundef %110, ptr noundef %117)
  br label %118

118:                                              ; preds = %109
  %119 = load i32, ptr %7, align 4
  %120 = add nsw i32 %119, 1
  store i32 %120, ptr %7, align 4
  br label %105, !llvm.loop !32

121:                                              ; preds = %105
  %122 = load ptr, ptr %2, align 8
  %123 = load ptr, ptr %2, align 8
  %124 = getelementptr inbounds %struct.png_struct_def, ptr %123, i32 0, i32 86
  %125 = load ptr, ptr %124, align 8
  call void @png_free(ptr noundef %122, ptr noundef %125)
  %126 = load ptr, ptr %2, align 8
  %127 = getelementptr inbounds %struct.png_struct_def, ptr %126, i32 0, i32 86
  store ptr null, ptr %127, align 8
  br label %128

128:                                              ; preds = %121, %94
  ret void
}