; Function Attrs: nounwind uwtable
define void @png_destroy_gamma_table(ptr noalias noundef %0) local_unnamed_addr #0 {
  %2 = getelementptr inbounds i8, ptr %0, i64 680
  %3 = load ptr, ptr %2, align 8
  tail call void @png_free(ptr noundef %0, ptr noundef %3) #29
  store ptr null, ptr %2, align 8
  %4 = getelementptr inbounds i8, ptr %0, i64 688
  %5 = load ptr, ptr %4, align 8
  %.not = icmp eq ptr %5, null
  br i1 %.not, label %15, label %6

6:                                                ; preds = %1
  %7 = getelementptr inbounds i8, ptr %0, i64 672
  %8 = load i32, ptr %7, align 8
  %.not54 = icmp eq i32 %8, -23
  br i1 %.not54, label %._crit_edge, label %.lr.ph.preheader

.lr.ph.preheader:                                 ; preds = %6
  %9 = sub nsw i32 8, %8
  %10 = shl nuw i32 1, %9
  %smax = tail call i32 @llvm.smax.i32(i32 %10, i32 1)
  %wide.trip.count = zext nneg i32 %smax to i64
  br label %.lr.ph

.lr.ph:                                           ; preds = %.lr.ph.preheader, %.lr.ph
  %indvars.iv = phi i64 [ 0, %.lr.ph.preheader ], [ %indvars.iv.next, %.lr.ph ]
  %11 = load ptr, ptr %4, align 8
  %12 = getelementptr inbounds ptr, ptr %11, i64 %indvars.iv
  %13 = load ptr, ptr %12, align 8
  tail call void @png_free(ptr noundef nonnull %0, ptr noundef %13) #29
  %indvars.iv.next = add nuw nsw i64 %indvars.iv, 1
  %exitcond.not = icmp eq i64 %indvars.iv.next, %wide.trip.count
  br i1 %exitcond.not, label %._crit_edge.loopexit, label %.lr.ph, !llvm.loop !72

._crit_edge.loopexit:                             ; preds = %.lr.ph
  %.pre = load ptr, ptr %4, align 8
  br label %._crit_edge

._crit_edge:                                      ; preds = %._crit_edge.loopexit, %6
  %14 = phi ptr [ %.pre, %._crit_edge.loopexit ], [ %5, %6 ]
  tail call void @png_free(ptr noundef nonnull %0, ptr noundef %14) #29
  store ptr null, ptr %4, align 8
  br label %15

15:                                               ; preds = %._crit_edge, %1
  %16 = getelementptr inbounds i8, ptr %0, i64 696
  %17 = load ptr, ptr %16, align 8
  tail call void @png_free(ptr noundef nonnull %0, ptr noundef %17) #29
  store ptr null, ptr %16, align 8
  %18 = getelementptr inbounds i8, ptr %0, i64 704
  %19 = load ptr, ptr %18, align 8
  tail call void @png_free(ptr noundef nonnull %0, ptr noundef %19) #29
  store ptr null, ptr %18, align 8
  %20 = getelementptr inbounds i8, ptr %0, i64 712
  %21 = load ptr, ptr %20, align 8
  %.not43 = icmp eq ptr %21, null
  br i1 %.not43, label %31, label %22

22:                                               ; preds = %15
  %23 = getelementptr inbounds i8, ptr %0, i64 672
  %24 = load i32, ptr %23, align 8
  %.not55 = icmp eq i32 %24, -23
  br i1 %.not55, label %._crit_edge49, label %.lr.ph48.preheader

.lr.ph48.preheader:                               ; preds = %22
  %25 = sub nsw i32 8, %24
  %26 = shl nuw i32 1, %25
  %smax61 = tail call i32 @llvm.smax.i32(i32 %26, i32 1)
  %wide.trip.count62 = zext nneg i32 %smax61 to i64
  br label %.lr.ph48

.lr.ph48:                                         ; preds = %.lr.ph48.preheader, %.lr.ph48
  %indvars.iv58 = phi i64 [ 0, %.lr.ph48.preheader ], [ %indvars.iv.next59, %.lr.ph48 ]
  %27 = load ptr, ptr %20, align 8
  %28 = getelementptr inbounds ptr, ptr %27, i64 %indvars.iv58
  %29 = load ptr, ptr %28, align 8
  tail call void @png_free(ptr noundef nonnull %0, ptr noundef %29) #29
  %indvars.iv.next59 = add nuw nsw i64 %indvars.iv58, 1
  %exitcond63.not = icmp eq i64 %indvars.iv.next59, %wide.trip.count62
  br i1 %exitcond63.not, label %._crit_edge49.loopexit, label %.lr.ph48, !llvm.loop !73

._crit_edge49.loopexit:                           ; preds = %.lr.ph48
  %.pre70 = load ptr, ptr %20, align 8
  br label %._crit_edge49

._crit_edge49:                                    ; preds = %._crit_edge49.loopexit, %22
  %30 = phi ptr [ %.pre70, %._crit_edge49.loopexit ], [ %21, %22 ]
  tail call void @png_free(ptr noundef nonnull %0, ptr noundef %30) #29
  store ptr null, ptr %20, align 8
  br label %31

31:                                               ; preds = %._crit_edge49, %15
  %32 = getelementptr inbounds i8, ptr %0, i64 720
  %33 = load ptr, ptr %32, align 8
  %.not44 = icmp eq ptr %33, null
  br i1 %.not44, label %43, label %34

34:                                               ; preds = %31
  %35 = getelementptr inbounds i8, ptr %0, i64 672
  %36 = load i32, ptr %35, align 8
  %.not56 = icmp eq i32 %36, -23
  br i1 %.not56, label %._crit_edge53, label %.lr.ph52.preheader

.lr.ph52.preheader:                               ; preds = %34
  %37 = sub nsw i32 8, %36
  %38 = shl nuw i32 1, %37
  %smax67 = tail call i32 @llvm.smax.i32(i32 %38, i32 1)
  %wide.trip.count68 = zext nneg i32 %smax67 to i64
  br label %.lr.ph52

.lr.ph52:                                         ; preds = %.lr.ph52.preheader, %.lr.ph52
  %indvars.iv64 = phi i64 [ 0, %.lr.ph52.preheader ], [ %indvars.iv.next65, %.lr.ph52 ]
  %39 = load ptr, ptr %32, align 8
  %40 = getelementptr inbounds ptr, ptr %39, i64 %indvars.iv64
  %41 = load ptr, ptr %40, align 8
  tail call void @png_free(ptr noundef nonnull %0, ptr noundef %41) #29
  %indvars.iv.next65 = add nuw nsw i64 %indvars.iv64, 1
  %exitcond69.not = icmp eq i64 %indvars.iv.next65, %wide.trip.count68
  br i1 %exitcond69.not, label %._crit_edge53.loopexit, label %.lr.ph52, !llvm.loop !74

._crit_edge53.loopexit:                           ; preds = %.lr.ph52
  %.pre71 = load ptr, ptr %32, align 8
  br label %._crit_edge53

._crit_edge53:                                    ; preds = %._crit_edge53.loopexit, %34
  %42 = phi ptr [ %.pre71, %._crit_edge53.loopexit ], [ %33, %34 ]
  tail call void @png_free(ptr noundef nonnull %0, ptr noundef %42) #29
  store ptr null, ptr %32, align 8
  br label %43

43:                                               ; preds = %._crit_edge53, %31
  ret void
}